target datalayout = "e-m:e-p270:32:32-p271:32:32-p272:64:64-i64:64-i128:128-f80:128-n8:16:32:64-S128"
target triple = "x86_64-pc-linux-gnu"

; Function Attrs: nounwind uwtable
define internal i32 @compare_L_source(ptr noundef %0, ptr noundef %1) #0 {
  %3 = alloca ptr, align 8
  %4 = alloca ptr, align 8
  %5 = alloca double, align 8
  %6 = alloca double, align 8
  store ptr %0, ptr %3, align 8, !tbaa !62
  store ptr %1, ptr %4, align 8, !tbaa !62
  call void @llvm.lifetime.start.p0(i64 8, ptr %5) #15
  %7 = load ptr, ptr %3, align 8, !tbaa !62
  %8 = load double, ptr %7, align 8, !tbaa !58
  store double %8, ptr %5, align 8, !tbaa !58
  call void @llvm.lifetime.start.p0(i64 8, ptr %6) #15
  %9 = load ptr, ptr %4, align 8, !tbaa !62
  %10 = load double, ptr %9, align 8, !tbaa !58
  store double %10, ptr %6, align 8, !tbaa !58
  %11 = load double, ptr %5, align 8, !tbaa !58
  %12 = load double, ptr %6, align 8, !tbaa !58
  %13 = fcmp reassoc nsz arcp contract afn olt double %11, %12
  br i1 %13, label %14, label %15

14:                                               ; preds = %2
  br label %20

15:                                               ; preds = %2
  %16 = load double, ptr %5, align 8, !tbaa !58
  %17 = load double, ptr %6, align 8, !tbaa !58
  %18 = fcmp reassoc nsz arcp contract afn ogt double %16, %17
  %19 = select i1 %18, i32 1, i32 0
  br label %20

20:                                               ; preds = %15, %14
  %21 = phi i32 [ -1, %14 ], [ %19, %15 ]
  call void @llvm.lifetime.end.p0(i64 8, ptr %6) #15
  call void @llvm.lifetime.end.p0(i64 8, ptr %5) #15
  ret i32 %21
}