; Function Attrs: mustprogress nofree norecurse nosync nounwind willreturn memory(argmem: read) uwtable
define internal range(i32 -1, 2) i32 @compare_L_source(ptr noundef readonly captures(none) %0, ptr noundef readonly captures(none) %1) #15 {
  %3 = load double, ptr %0, align 8, !tbaa !30
  %4 = load double, ptr %1, align 8, !tbaa !30
  %5 = fcmp reassoc nsz arcp contract afn olt double %3, %4
  %6 = fcmp reassoc nsz arcp contract afn ogt double %3, %4
  %7 = zext i1 %6 to i32
  %8 = select i1 %5, i32 -1, i32 %7
  ret i32 %8
}